; Function Attrs: mustprogress nofree norecurse nosync nounwind willreturn memory(argmem: write) uwtable
define internal noundef zeroext i1 @_ZNSt17_Function_handlerIFvvEZN12_GLOBAL__N_124microchip_dsp_cascade_pm25run_microchip_dsp_cascadeEvEUlvE_E10_M_managerERSt9_Any_dataRKS5_St18_Manager_operation(ptr noundef nonnull writeonly align 8 captures(none) dereferenceable(16) %0, ptr noundef nonnull align 8 dereferenceable(16) %1, i32 noundef %2) #21 align 2 personality ptr @__gxx_personality_v0 {
  switch i32 %2, label %_ZNSt14_Function_base13_Base_managerIZN12_GLOBAL__N_124microchip_dsp_cascade_pm25run_microchip_dsp_cascadeEvEUlvE_E10_M_managerERSt9_Any_dataRKS5_St18_Manager_operation.exit [
    i32 0, label %_ZNSt14_Function_base13_Base_managerIZN12_GLOBAL__N_124microchip_dsp_cascade_pm25run_microchip_dsp_cascadeEvEUlvE_E10_M_managerERSt9_Any_dataRKS5_St18_Manager_operation.exit.sink.split
    i32 1, label %4
  ]

4:                                                ; preds = %3
  br label %_ZNSt14_Function_base13_Base_managerIZN12_GLOBAL__N_124microchip_dsp_cascade_pm25run_microchip_dsp_cascadeEvEUlvE_E10_M_managerERSt9_Any_dataRKS5_St18_Manager_operation.exit.sink.split

_ZNSt14_Function_base13_Base_managerIZN12_GLOBAL__N_124microchip_dsp_cascade_pm25run_microchip_dsp_cascadeEvEUlvE_E10_M_managerERSt9_Any_dataRKS5_St18_Manager_operation.exit.sink.split: ; preds = %3, %4
  %.sink = phi ptr [ %1, %4 ], [ @_ZTIZN12_GLOBAL__N_124microchip_dsp_cascade_pm25run_microchip_dsp_cascadeEvEUlvE_, %3 ]
  store ptr %.sink, ptr %0, align 8, !tbaa !119
  br label %_ZNSt14_Function_base13_Base_managerIZN12_GLOBAL__N_124microchip_dsp_cascade_pm25run_microchip_dsp_cascadeEvEUlvE_E10_M_managerERSt9_Any_dataRKS5_St18_Manager_operation.exit

_ZNSt14_Function_base13_Base_managerIZN12_GLOBAL__N_124microchip_dsp_cascade_pm25run_microchip_dsp_cascadeEvEUlvE_E10_M_managerERSt9_Any_dataRKS5_St18_Manager_operation.exit: ; preds = %_ZNSt14_Function_base13_Base_managerIZN12_GLOBAL__N_124microchip_dsp_cascade_pm25run_microchip_dsp_cascadeEvEUlvE_E10_M_managerERSt9_Any_dataRKS5_St18_Manager_operation.exit.sink.split, %3
  ret i1 false
}